; Function Attrs: mustprogress uwtable
define void @_ZNK6icu_756number4impl24ImmutablePatternModifier13applyToMicrosERNS1_10MicroPropsERKNS1_15DecimalQuantityER10UErrorCode(ptr nocapture noundef nonnull readonly align 8 dereferenceable(32) %this, ptr noundef nonnull align 8 dereferenceable(489) %micros, ptr noundef nonnull align 8 dereferenceable(66) %quantity, ptr noundef nonnull align 4 dereferenceable(4) %status) local_unnamed_addr #1 align 2 {
entry:
  %rules = getelementptr inbounds i8, ptr %this, i64 16
  %0 = load ptr, ptr %rules, align 8
  %cmp = icmp eq ptr %0, null
  br i1 %cmp, label %if.then, label %if.else

if.then:                                          ; preds = %entry
  %pm = getelementptr inbounds i8, ptr %this, i64 8
  %1 = load ptr, ptr %pm, align 8
  %call2 = tail call noundef i32 @_ZNK6icu_756number4impl15DecimalQuantity6signumEv(ptr noundef nonnull align 8 dereferenceable(66) %quantity)
  %mods.i.i = getelementptr inbounds i8, ptr %1, i64 216
  %idxprom.i.i = zext i32 %call2 to i64
  %arrayidx.i.i = getelementptr inbounds [4 x ptr], ptr %mods.i.i, i64 0, i64 %idxprom.i.i
  %2 = load ptr, ptr %arrayidx.i.i, align 8
  br label %if.end

if.else:                                          ; preds = %entry
  %rounder = getelementptr inbounds i8, ptr %micros, i64 104
  %call5 = tail call noundef i32 @_ZN6icu_756number4impl5utils13getPluralSafeERKNS1_12RoundingImplEPKNS_11PluralRulesERKNS1_15DecimalQuantityER10UErrorCode(ptr noundef nonnull align 8 dereferenceable(37) %rounder, ptr noundef nonnull %0, ptr noundef nonnull align 8 dereferenceable(66) %quantity, ptr noundef nonnull align 4 dereferenceable(4) %status)
  %pm6 = getelementptr inbounds i8, ptr %this, i64 8
  %3 = load ptr, ptr %pm6, align 8
  %call8 = tail call noundef i32 @_ZNK6icu_756number4impl15DecimalQuantity6signumEv(ptr noundef nonnull align 8 dereferenceable(66) %quantity)
  %vtable = load ptr, ptr %3, align 8
  %vfn = getelementptr inbounds i8, ptr %vtable, i64 16
  %4 = load ptr, ptr %vfn, align 8
  %call9 = tail call noundef ptr %4(ptr noundef nonnull align 8 dereferenceable(328) %3, i32 noundef %call8, i32 noundef %call5)
  br label %if.end

if.end:                                           ; preds = %if.else, %if.then
  %call9.sink = phi ptr [ %2, %if.then ], [ %call9, %if.else ]
  %5 = getelementptr inbounds i8, ptr %micros, i64 200
  store ptr %call9.sink, ptr %5, align 8
  ret void
}